; ModuleID = '30/240.c'
source_filename = "30/240.c"
target datalayout = "e-m:e-p270:32:32-p271:32:32-p272:64:64-i64:64-f80:128-n8:16:32:64-S128"
target triple = "x86_64-pc-linux-gnu"

@.str = private unnamed_addr constant [3 x i8] c"%d\00", align 1
@.str.1 = private unnamed_addr constant [4 x i8] c"%d\0A\00", align 1

; Function Attrs: noinline nounwind uwtable
define dso_local void @main() #0 {
  %1 = alloca i32, align 4
  %2 = alloca i32, align 4
  %3 = alloca i32, align 4
  %4 = alloca i32, align 4
  store i32 0, i32* %1, align 4
  store i32 0, i32* %2, align 4
  %5 = call i32 (i8*, ...) @__isoc99_scanf(i8* getelementptr inbounds ([3 x i8], [3 x i8]* @.str, i64 0, i64 0), i32* %3)
  store i32 1, i32* %4, align 4
  br label %6

6:                                                ; preds = %52, %0
  %7 = load i32, i32* %4, align 4
  %8 = load i32, i32* %3, align 4
  %9 = icmp sle i32 %7, %8
  br i1 %9, label %10, label %55

10:                                               ; preds = %6
  %11 = load i32, i32* %4, align 4
  %12 = srem i32 %11, 7
  %13 = icmp eq i32 %12, 0
  br i1 %13, label %44, label %14

14:                                               ; preds = %10
  %15 = load i32, i32* %4, align 4
  %16 = icmp sge i32 %15, 70
  br i1 %16, label %17, label %20

17:                                               ; preds = %14
  %18 = load i32, i32* %4, align 4
  %19 = icmp slt i32 %18, 80
  br i1 %19, label %44, label %20

20:                                               ; preds = %17, %14
  %21 = load i32, i32* %4, align 4
  %22 = icmp eq i32 %21, 17
  br i1 %22, label %44, label %23

23:                                               ; preds = %20
  %24 = load i32, i32* %4, align 4
  %25 = icmp eq i32 %24, 27
  br i1 %25, label %44, label %26

26:                                               ; preds = %23
  %27 = load i32, i32* %4, align 4
  %28 = icmp eq i32 %27, 37
  br i1 %28, label %44, label %29

29:                                               ; preds = %26
  %30 = load i32, i32* %4, align 4
  %31 = icmp eq i32 %30, 47
  br i1 %31, label %44, label %32

32:                                               ; preds = %29
  %33 = load i32, i32* %4, align 4
  %34 = icmp eq i32 %33, 57
  br i1 %34, label %44, label %35

35:                                               ; preds = %32
  %36 = load i32, i32* %4, align 4
  %37 = icmp eq i32 %36, 67
  br i1 %37, label %44, label %38

38:                                               ; preds = %35
  %39 = load i32, i32* %4, align 4
  %40 = icmp eq i32 %39, 87
  br i1 %40, label %44, label %41

41:                                               ; preds = %38
  %42 = load i32, i32* %4, align 4
  %43 = icmp eq i32 %42, 97
  br i1 %43, label %44, label %45

44:                                               ; preds = %41, %38, %35, %32, %29, %26, %23, %20, %17, %10
  br label %52

45:                                               ; preds = %41
  %46 = load i32, i32* %4, align 4
  %47 = load i32, i32* %4, align 4
  %48 = mul nsw i32 %46, %47
  store i32 %48, i32* %1, align 4
  %49 = load i32, i32* %2, align 4
  %50 = load i32, i32* %1, align 4
  %51 = add nsw i32 %49, %50
  store i32 %51, i32* %2, align 4
  br label %52

52:                                               ; preds = %45, %44
  %53 = load i32, i32* %4, align 4
  %54 = add nsw i32 %53, 1
  store i32 %54, i32* %4, align 4
  br label %6

55:                                               ; preds = %6
  %56 = load i32, i32* %2, align 4
  %57 = call i32 (i8*, ...) @printf(i8* getelementptr inbounds ([4 x i8], [4 x i8]* @.str.1, i64 0, i64 0), i32 %56)
  ret void
}

declare dso_local i32 @__isoc99_scanf(i8*, ...) #1

declare dso_local i32 @printf(i8*, ...) #1


!llvm.module.flags = !{!0}
!llvm.ident = !{!1}

!0 = !{i32 1, !"wchar_size", i32 4}
!1 = !{!"clang version 10.0.0-4ubuntu1 "}
