; ModuleID = 'source-C-CXX/29/240.c'
source_filename = "source-C-CXX/29/240.c"
target datalayout = "e-m:e-p270:32:32-p271:32:32-p272:64:64-i64:64-f80:128-n8:16:32:64-S128"
target triple = "x86_64-pc-linux-gnu"

@.str = private unnamed_addr constant [3 x i8] c"%d\00", align 1
@.str.1 = private unnamed_addr constant [4 x i8] c"%d\0A\00", align 1

; Function Attrs: nofree nounwind sspstrong uwtable
define dso_local void @main() local_unnamed_addr #0 {
  %1 = alloca i32, align 4
  %2 = bitcast i32* %1 to i8*
  call void @llvm.lifetime.start.p0i8(i64 4, i8* nonnull %2) #3
  %3 = call i32 (i8*, ...) @__isoc99_scanf(i8* getelementptr inbounds ([3 x i8], [3 x i8]* @.str, i64 0, i64 0), i32* nonnull %1)
  %4 = load i32, i32* %1, align 4, !tbaa !5
  %5 = icmp slt i32 %4, 1
  br i1 %5, label %23, label %6

6:                                                ; preds = %0, %19
  %7 = phi i32 [ %21, %19 ], [ 1, %0 ]
  %8 = phi i32 [ %20, %19 ], [ 0, %0 ]
  %9 = urem i32 %7, 7
  %10 = icmp eq i32 %9, 0
  br i1 %10, label %19, label %11

11:                                               ; preds = %6
  %12 = add nsw i32 %7, -70
  %13 = freeze i32 %12
  %14 = icmp ult i32 %13, 10
  br i1 %14, label %19, label %15

15:                                               ; preds = %11
  switch i32 %7, label %16 [
    i32 97, label %19
    i32 87, label %19
    i32 67, label %19
    i32 57, label %19
    i32 47, label %19
    i32 37, label %19
    i32 27, label %19
    i32 17, label %19
  ]

16:                                               ; preds = %15
  %17 = mul nsw i32 %7, %7
  %18 = add nsw i32 %17, %8
  br label %19

19:                                               ; preds = %15, %15, %15, %15, %15, %15, %15, %15, %11, %6, %16
  %20 = phi i32 [ %8, %6 ], [ %8, %15 ], [ %18, %16 ], [ %8, %11 ], [ %8, %15 ], [ %8, %15 ], [ %8, %15 ], [ %8, %15 ], [ %8, %15 ], [ %8, %15 ], [ %8, %15 ]
  %21 = add nuw i32 %7, 1
  %22 = icmp eq i32 %7, %4
  br i1 %22, label %23, label %6, !llvm.loop !9

23:                                               ; preds = %19, %0
  %24 = phi i32 [ 0, %0 ], [ %20, %19 ]
  %25 = call i32 (i8*, ...) @printf(i8* nonnull dereferenceable(1) getelementptr inbounds ([4 x i8], [4 x i8]* @.str.1, i64 0, i64 0), i32 %24)
  call void @llvm.lifetime.end.p0i8(i64 4, i8* nonnull %2) #3
  ret void
}

; Function Attrs: argmemonly mustprogress nofree nosync nounwind willreturn
declare void @llvm.lifetime.start.p0i8(i64 immarg, i8* nocapture) #1

; Function Attrs: nofree nounwind
declare noundef i32 @__isoc99_scanf(i8* nocapture noundef readonly, ...) local_unnamed_addr #2

; Function Attrs: nofree nounwind
declare noundef i32 @printf(i8* nocapture noundef readonly, ...) local_unnamed_addr #2

; Function Attrs: argmemonly mustprogress nofree nosync nounwind willreturn
declare void @llvm.lifetime.end.p0i8(i64 immarg, i8* nocapture) #1


!llvm.module.flags = !{!0, !1, !2, !3}
!llvm.ident = !{!4}

!0 = !{i32 1, !"wchar_size", i32 4}
!1 = !{i32 7, !"PIC Level", i32 2}
!2 = !{i32 7, !"PIE Level", i32 2}
!3 = !{i32 7, !"uwtable", i32 1}
!4 = !{!"clang version 13.0.0"}
!5 = !{!6, !6, i64 0}
!6 = !{!"int", !7, i64 0}
!7 = !{!"omnipotent char", !8, i64 0}
!8 = !{!"Simple C/C++ TBAA"}
!9 = distinct !{!9, !10}
!10 = !{!"llvm.loop.mustprogress"}
